target datalayout = "e-m:e-p270:32:32-p271:32:32-p272:64:64-i64:64-i128:128-f80:128-n8:16:32:64-S128"
target triple = "x86_64-pc-linux-gnu"

@stderr = external global ptr, align 8
@.str = private unnamed_addr constant [15 x i8] c"%s:%d: error: \00", align 1
@.str.1 = private unnamed_addr constant [49 x i8] c"../cpython/Modules/_decimal/libmpdec/typearith.h\00", align 1
@.str.2 = private unnamed_addr constant [42 x i8] c"mul_size_t(): overflow: check the context\00", align 1

; Function Attrs: inlinehint nounwind uwtable
define internal void @_mpd_mul_words(ptr noundef %0, ptr noundef %1, i64 noundef %2, i64 noundef %3) #2 {
  %5 = alloca ptr, align 8
  %6 = alloca ptr, align 8
  %7 = alloca i64, align 8
  %8 = alloca i64, align 8
  %9 = alloca i128, align 16
  store ptr %0, ptr %5, align 8, !tbaa !3
  store ptr %1, ptr %6, align 8, !tbaa !3
  store i64 %2, ptr %7, align 8, !tbaa !8
  store i64 %3, ptr %8, align 8, !tbaa !8
  call void @llvm.lifetime.start.p0(i64 16, ptr %9) #7
  %10 = load i64, ptr %7, align 8, !tbaa !8
  %11 = zext i64 %10 to i128
  %12 = load i64, ptr %8, align 8, !tbaa !8
  %13 = zext i64 %12 to i128
  %14 = mul i128 %11, %13
  store i128 %14, ptr %9, align 16, !tbaa !29
  %15 = load i128, ptr %9, align 16, !tbaa !29
  %16 = lshr i128 %15, 64
  %17 = trunc i128 %16 to i64
  %18 = load ptr, ptr %5, align 8, !tbaa !3
  store i64 %17, ptr %18, align 8, !tbaa !8
  %19 = load i128, ptr %9, align 16, !tbaa !29
  %20 = trunc i128 %19 to i64
  %21 = load ptr, ptr %6, align 8, !tbaa !3
  store i64 %20, ptr %21, align 8, !tbaa !8
  call void @llvm.lifetime.end.p0(i64 16, ptr %9) #7
  ret void
}

; Function Attrs: inlinehint nounwind uwtable
define internal i64 @mul_size_t(i64 noundef %0, i64 noundef %1) #2 {
  %3 = alloca i64, align 8
  %4 = alloca i64, align 8
  %5 = alloca i64, align 8
  %6 = alloca i64, align 8
  store i64 %0, ptr %3, align 8, !tbaa !8
  store i64 %1, ptr %4, align 8, !tbaa !8
  call void @llvm.lifetime.start.p0(i64 8, ptr %5) #7
  call void @llvm.lifetime.start.p0(i64 8, ptr %6) #7
  %7 = load i64, ptr %3, align 8, !tbaa !8
  %8 = load i64, ptr %4, align 8, !tbaa !8
  call void @_mpd_mul_words(ptr noundef %5, ptr noundef %6, i64 noundef %7, i64 noundef %8)
  %9 = load i64, ptr %5, align 8, !tbaa !8
  %10 = icmp ne i64 %9, 0
  br i1 %10, label %11, label %21

11:                                               ; preds = %2
  br label %12

12:                                               ; preds = %11
  %13 = load ptr, ptr @stderr, align 8, !tbaa !13
  %14 = call i32 (ptr, ptr, ...) @fprintf(ptr noundef %13, ptr noundef @.str, ptr noundef @.str.1, i32 noundef 622) #7
  %15 = load ptr, ptr @stderr, align 8, !tbaa !13
  %16 = call i32 (ptr, ptr, ...) @fprintf(ptr noundef %15, ptr noundef @.str.2) #7
  %17 = load ptr, ptr @stderr, align 8, !tbaa !13
  %18 = call i32 @fputc(i32 noundef 10, ptr noundef %17)
  call void @abort() #8
  unreachable

19:                                               ; No predecessors!
  br label %20

20:                                               ; preds = %19
  br label %21

21:                                               ; preds = %20, %2
  %22 = load i64, ptr %6, align 8, !tbaa !8
  call void @llvm.lifetime.end.p0(i64 8, ptr %6) #7
  call void @llvm.lifetime.end.p0(i64 8, ptr %5) #7
  ret i64 %22
}

; Function Attrs: nounwind uwtable
define hidden i32 @transpose_pow2(ptr noundef %0, i64 noundef %1, i64 noundef %2) #0 {
  %4 = alloca i32, align 4
  %5 = alloca ptr, align 8
  %6 = alloca i64, align 8
  %7 = alloca i64, align 8
  %8 = alloca i64, align 8
  %9 = alloca i32, align 4
  store ptr %0, ptr %5, align 8, !tbaa !3
  store i64 %1, ptr %6, align 8, !tbaa !8
  store i64 %2, ptr %7, align 8, !tbaa !8
  call void @llvm.lifetime.start.p0(i64 8, ptr %8) #7
  %10 = load i64, ptr %6, align 8, !tbaa !8
  %11 = load i64, ptr %7, align 8, !tbaa !8
  %12 = call i64 @mul_size_t(i64 noundef %10, i64 noundef %11)
  store i64 %12, ptr %8, align 8, !tbaa !8
  %13 = load i64, ptr %7, align 8, !tbaa !8
  %14 = load i64, ptr %6, align 8, !tbaa !8
  %15 = icmp eq i64 %13, %14
  br i1 %15, label %16, label %19

16:                                               ; preds = %3
  %17 = load ptr, ptr %5, align 8, !tbaa !3
  %18 = load i64, ptr %6, align 8, !tbaa !8
  call void @squaretrans_pow2(ptr noundef %17, i64 noundef %18)
  br label %62

19:                                               ; preds = %3
  %20 = load i64, ptr %7, align 8, !tbaa !8
  %21 = load i64, ptr %6, align 8, !tbaa !8
  %22 = call i64 @mul_size_t(i64 noundef 2, i64 noundef %21)
  %23 = icmp eq i64 %20, %22
  br i1 %23, label %24, label %39

24:                                               ; preds = %19
  %25 = load ptr, ptr %5, align 8, !tbaa !3
  %26 = load i64, ptr %6, align 8, !tbaa !8
  %27 = load i64, ptr %7, align 8, !tbaa !8
  %28 = call i32 @swap_halfrows_pow2(ptr noundef %25, i64 noundef %26, i64 noundef %27, i32 noundef 0)
  %29 = icmp ne i32 %28, 0
  br i1 %29, label %31, label %30

30:                                               ; preds = %24
  store i32 0, ptr %4, align 4
  store i32 1, ptr %9, align 4
  br label %63

31:                                               ; preds = %24
  %32 = load ptr, ptr %5, align 8, !tbaa !3
  %33 = load i64, ptr %6, align 8, !tbaa !8
  call void @squaretrans_pow2(ptr noundef %32, i64 noundef %33)
  %34 = load ptr, ptr %5, align 8, !tbaa !3
  %35 = load i64, ptr %8, align 8, !tbaa !8
  %36 = udiv i64 %35, 2
  %37 = getelementptr i64, ptr %34, i64 %36
  %38 = load i64, ptr %6, align 8, !tbaa !8
  call void @squaretrans_pow2(ptr noundef %37, i64 noundef %38)
  br label %61

39:                                               ; preds = %19
  %40 = load i64, ptr %6, align 8, !tbaa !8
  %41 = load i64, ptr %7, align 8, !tbaa !8
  %42 = call i64 @mul_size_t(i64 noundef 2, i64 noundef %41)
  %43 = icmp eq i64 %40, %42
  br i1 %43, label %44, label %59

44:                                               ; preds = %39
  %45 = load ptr, ptr %5, align 8, !tbaa !3
  %46 = load i64, ptr %7, align 8, !tbaa !8
  call void @squaretrans_pow2(ptr noundef %45, i64 noundef %46)
  %47 = load ptr, ptr %5, align 8, !tbaa !3
  %48 = load i64, ptr %8, align 8, !tbaa !8
  %49 = udiv i64 %48, 2
  %50 = getelementptr i64, ptr %47, i64 %49
  %51 = load i64, ptr %7, align 8, !tbaa !8
  call void @squaretrans_pow2(ptr noundef %50, i64 noundef %51)
  %52 = load ptr, ptr %5, align 8, !tbaa !3
  %53 = load i64, ptr %7, align 8, !tbaa !8
  %54 = load i64, ptr %6, align 8, !tbaa !8
  %55 = call i32 @swap_halfrows_pow2(ptr noundef %52, i64 noundef %53, i64 noundef %54, i32 noundef 1)
  %56 = icmp ne i32 %55, 0
  br i1 %56, label %58, label %57

57:                                               ; preds = %44
  store i32 0, ptr %4, align 4
  store i32 1, ptr %9, align 4
  br label %63

58:                                               ; preds = %44
  br label %60

59:                                               ; preds = %39
  call void @abort() #8
  unreachable

60:                                               ; preds = %58
  br label %61

61:                                               ; preds = %60, %31
  br label %62

62:                                               ; preds = %61, %16
  store i32 1, ptr %4, align 4
  store i32 1, ptr %9, align 4
  br label %63

63:                                               ; preds = %62, %57, %30
  call void @llvm.lifetime.end.p0(i64 8, ptr %8) #7
  %64 = load i32, ptr %4, align 4
  ret i32 %64
}