; Function Attrs: nounwind uwtable
define hidden range(i32 0, 2) i32 @transpose_pow2(ptr noundef captures(none) %0, i64 noundef %1, i64 noundef %2) local_unnamed_addr #2 {
  %umul.i = tail call { i64, i1 } @llvm.umul.with.overflow.i64(i64 %2, i64 %1)
  %4 = extractvalue { i64, i1 } %umul.i, 1
  br i1 %4, label %5, label %mul_size_t.exit

5:                                                ; preds = %3
  %6 = load ptr, ptr @stderr, align 8, !tbaa !10
  %7 = tail call i32 (ptr, ptr, ...) @fprintf(ptr noundef %6, ptr noundef nonnull @.str, ptr noundef nonnull @.str.1, i32 noundef 622) #10
  %8 = load ptr, ptr @stderr, align 8, !tbaa !10
  %9 = tail call i64 @fwrite(ptr nonnull @.str.2, i64 41, i64 1, ptr %8) #11
  %10 = load ptr, ptr @stderr, align 8, !tbaa !10
  %11 = tail call i32 @fputc(i32 noundef 10, ptr noundef %10)
  tail call void @abort() #12
  unreachable

mul_size_t.exit:                                  ; preds = %3
  %umul.value.i = extractvalue { i64, i1 } %umul.i, 0
  %12 = icmp eq i64 %2, %1
  br i1 %12, label %13, label %14

13:                                               ; preds = %mul_size_t.exit
  tail call fastcc void @squaretrans_pow2(ptr noundef %0, i64 noundef %2)
  br label %44

14:                                               ; preds = %mul_size_t.exit
  %15 = icmp slt i64 %1, 0
  br i1 %15, label %16, label %mul_size_t.exit31

16:                                               ; preds = %14
  %17 = load ptr, ptr @stderr, align 8, !tbaa !10
  %18 = tail call i32 (ptr, ptr, ...) @fprintf(ptr noundef %17, ptr noundef nonnull @.str, ptr noundef nonnull @.str.1, i32 noundef 622) #10
  %19 = load ptr, ptr @stderr, align 8, !tbaa !10
  %20 = tail call i64 @fwrite(ptr nonnull @.str.2, i64 41, i64 1, ptr %19) #11
  %21 = load ptr, ptr @stderr, align 8, !tbaa !10
  %22 = tail call i32 @fputc(i32 noundef 10, ptr noundef %21)
  tail call void @abort() #12
  unreachable

mul_size_t.exit31:                                ; preds = %14
  %umul.value.i30 = shl nuw i64 %1, 1
  %23 = icmp eq i64 %2, %umul.value.i30
  br i1 %23, label %24, label %29

24:                                               ; preds = %mul_size_t.exit31
  %25 = tail call fastcc i32 @swap_halfrows_pow2(ptr noundef %0, i64 noundef %1, i64 noundef %2, i32 noundef 0)
  %.not28 = icmp eq i32 %25, 0
  br i1 %.not28, label %45, label %26

26:                                               ; preds = %24
  tail call fastcc void @squaretrans_pow2(ptr noundef %0, i64 noundef %1)
  %27 = lshr i64 %umul.value.i, 1
  %28 = getelementptr i64, ptr %0, i64 %27
  tail call fastcc void @squaretrans_pow2(ptr noundef %28, i64 noundef %1)
  br label %44

29:                                               ; preds = %mul_size_t.exit31
  %30 = icmp slt i64 %2, 0
  br i1 %30, label %31, label %mul_size_t.exit34

31:                                               ; preds = %29
  %32 = load ptr, ptr @stderr, align 8, !tbaa !10
  %33 = tail call i32 (ptr, ptr, ...) @fprintf(ptr noundef %32, ptr noundef nonnull @.str, ptr noundef nonnull @.str.1, i32 noundef 622) #10
  %34 = load ptr, ptr @stderr, align 8, !tbaa !10
  %35 = tail call i64 @fwrite(ptr nonnull @.str.2, i64 41, i64 1, ptr %34) #11
  %36 = load ptr, ptr @stderr, align 8, !tbaa !10
  %37 = tail call i32 @fputc(i32 noundef 10, ptr noundef %36)
  tail call void @abort() #12
  unreachable

mul_size_t.exit34:                                ; preds = %29
  %umul.value.i33 = shl nuw i64 %2, 1
  %38 = icmp eq i64 %1, %umul.value.i33
  br i1 %38, label %39, label %43

39:                                               ; preds = %mul_size_t.exit34
  tail call fastcc void @squaretrans_pow2(ptr noundef %0, i64 noundef %2)
  %40 = lshr i64 %umul.value.i, 1
  %41 = getelementptr i64, ptr %0, i64 %40
  tail call fastcc void @squaretrans_pow2(ptr noundef %41, i64 noundef %2)
  %42 = tail call fastcc i32 @swap_halfrows_pow2(ptr noundef %0, i64 noundef %2, i64 noundef %1, i32 noundef 1)
  %.not = icmp eq i32 %42, 0
  br i1 %.not, label %45, label %44

43:                                               ; preds = %mul_size_t.exit34
  tail call void @abort() #12
  unreachable

44:                                               ; preds = %26, %39, %13
  br label %45

45:                                               ; preds = %39, %24, %44
  %.0 = phi i32 [ 1, %44 ], [ 0, %24 ], [ 0, %39 ]
  ret i32 %.0
}